target datalayout = "e-m:e-p270:32:32-p271:32:32-p272:64:64-i64:64-i128:128-f80:128-n8:16:32:64-S128"
target triple = "x86_64-pc-linux-gnu"

%struct.bio_st = type { ptr, ptr, ptr, ptr, ptr, i32, i32, i32, i32, i32, ptr, ptr, ptr, %struct.CRYPTO_REF_COUNT, i64, i64, %struct.crypto_ex_data_st }
%struct.CRYPTO_REF_COUNT = type { i32 }
%struct.crypto_ex_data_st = type { ptr, ptr }

; Function Attrs: nounwind uwtable
define internal i32 @fd_free(ptr noundef %0) #0 {
  %2 = alloca i32, align 4
  %3 = alloca ptr, align 8
  store ptr %0, ptr %3, align 8, !tbaa !7
  %4 = load ptr, ptr %3, align 8, !tbaa !7
  %5 = icmp eq ptr %4, null
  br i1 %5, label %6, label %7

6:                                                ; preds = %1
  store i32 0, ptr %2, align 4
  br label %28

7:                                                ; preds = %1
  %8 = load ptr, ptr %3, align 8, !tbaa !7
  %9 = getelementptr inbounds nuw %struct.bio_st, ptr %8, i32 0, i32 6
  %10 = load i32, ptr %9, align 4, !tbaa !26
  %11 = icmp ne i32 %10, 0
  br i1 %11, label %12, label %27

12:                                               ; preds = %7
  %13 = load ptr, ptr %3, align 8, !tbaa !7
  %14 = getelementptr inbounds nuw %struct.bio_st, ptr %13, i32 0, i32 5
  %15 = load i32, ptr %14, align 8, !tbaa !27
  %16 = icmp ne i32 %15, 0
  br i1 %16, label %17, label %22

17:                                               ; preds = %12
  %18 = load ptr, ptr %3, align 8, !tbaa !7
  %19 = getelementptr inbounds nuw %struct.bio_st, ptr %18, i32 0, i32 9
  %20 = load i32, ptr %19, align 8, !tbaa !12
  %21 = call i32 @close(i32 noundef %20)
  br label %22

22:                                               ; preds = %17, %12
  %23 = load ptr, ptr %3, align 8, !tbaa !7
  %24 = getelementptr inbounds nuw %struct.bio_st, ptr %23, i32 0, i32 5
  store i32 0, ptr %24, align 8, !tbaa !27
  %25 = load ptr, ptr %3, align 8, !tbaa !7
  %26 = getelementptr inbounds nuw %struct.bio_st, ptr %25, i32 0, i32 7
  store i32 0, ptr %26, align 8, !tbaa !20
  br label %27

27:                                               ; preds = %22, %7
  store i32 1, ptr %2, align 4
  br label %28

28:                                               ; preds = %27, %6
  %29 = load i32, ptr %2, align 4
  ret i32 %29
}

; Function Attrs: nounwind uwtable
define internal i64 @fd_ctrl(ptr noundef %0, i32 noundef %1, i64 noundef %2, ptr noundef %3) #0 {
  %5 = alloca ptr, align 8
  %6 = alloca i32, align 4
  %7 = alloca i64, align 8
  %8 = alloca ptr, align 8
  %9 = alloca i64, align 8
  %10 = alloca ptr, align 8
  store ptr %0, ptr %5, align 8, !tbaa !7
  store i32 %1, ptr %6, align 4, !tbaa !3
  store i64 %2, ptr %7, align 8, !tbaa !24
  store ptr %3, ptr %8, align 8, !tbaa !25
  call void @llvm.lifetime.start.p0(i64 8, ptr %9) #6
  store i64 1, ptr %9, align 8, !tbaa !24
  call void @llvm.lifetime.start.p0(i64 8, ptr %10) #6
  %11 = load i32, ptr %6, align 4, !tbaa !3
  switch i32 %11, label %78 [
    i32 1, label %12
    i32 128, label %13
    i32 133, label %19
    i32 3, label %19
    i32 104, label %24
    i32 105, label %37
    i32 8, label %58
    i32 9, label %63
    i32 10, label %68
    i32 13, label %68
    i32 12, label %69
    i32 11, label %69
    i32 2, label %70
  ]

12:                                               ; preds = %4
  store i64 0, ptr %7, align 8, !tbaa !24
  br label %13

13:                                               ; preds = %4, %12
  %14 = load ptr, ptr %5, align 8, !tbaa !7
  %15 = getelementptr inbounds nuw %struct.bio_st, ptr %14, i32 0, i32 9
  %16 = load i32, ptr %15, align 8, !tbaa !12
  %17 = load i64, ptr %7, align 8, !tbaa !24
  %18 = call i64 @lseek(i32 noundef %16, i64 noundef %17, i32 noundef 0) #6
  store i64 %18, ptr %9, align 8, !tbaa !24
  br label %79

19:                                               ; preds = %4, %4
  %20 = load ptr, ptr %5, align 8, !tbaa !7
  %21 = getelementptr inbounds nuw %struct.bio_st, ptr %20, i32 0, i32 9
  %22 = load i32, ptr %21, align 8, !tbaa !12
  %23 = call i64 @lseek(i32 noundef %22, i64 noundef 0, i32 noundef 1) #6
  store i64 %23, ptr %9, align 8, !tbaa !24
  br label %79

24:                                               ; preds = %4
  %25 = load ptr, ptr %5, align 8, !tbaa !7
  %26 = call i32 @fd_free(ptr noundef %25)
  %27 = load ptr, ptr %8, align 8, !tbaa !25
  %28 = load i32, ptr %27, align 4, !tbaa !3
  %29 = load ptr, ptr %5, align 8, !tbaa !7
  %30 = getelementptr inbounds nuw %struct.bio_st, ptr %29, i32 0, i32 9
  store i32 %28, ptr %30, align 8, !tbaa !12
  %31 = load i64, ptr %7, align 8, !tbaa !24
  %32 = trunc i64 %31 to i32
  %33 = load ptr, ptr %5, align 8, !tbaa !7
  %34 = getelementptr inbounds nuw %struct.bio_st, ptr %33, i32 0, i32 6
  store i32 %32, ptr %34, align 4, !tbaa !26
  %35 = load ptr, ptr %5, align 8, !tbaa !7
  %36 = getelementptr inbounds nuw %struct.bio_st, ptr %35, i32 0, i32 5
  store i32 1, ptr %36, align 8, !tbaa !27
  br label %79

37:                                               ; preds = %4
  %38 = load ptr, ptr %5, align 8, !tbaa !7
  %39 = getelementptr inbounds nuw %struct.bio_st, ptr %38, i32 0, i32 5
  %40 = load i32, ptr %39, align 8, !tbaa !27
  %41 = icmp ne i32 %40, 0
  br i1 %41, label %42, label %56

42:                                               ; preds = %37
  %43 = load ptr, ptr %8, align 8, !tbaa !25
  store ptr %43, ptr %10, align 8, !tbaa !28
  %44 = load ptr, ptr %10, align 8, !tbaa !28
  %45 = icmp ne ptr %44, null
  br i1 %45, label %46, label %51

46:                                               ; preds = %42
  %47 = load ptr, ptr %5, align 8, !tbaa !7
  %48 = getelementptr inbounds nuw %struct.bio_st, ptr %47, i32 0, i32 9
  %49 = load i32, ptr %48, align 8, !tbaa !12
  %50 = load ptr, ptr %10, align 8, !tbaa !28
  store i32 %49, ptr %50, align 4, !tbaa !3
  br label %51

51:                                               ; preds = %46, %42
  %52 = load ptr, ptr %5, align 8, !tbaa !7
  %53 = getelementptr inbounds nuw %struct.bio_st, ptr %52, i32 0, i32 9
  %54 = load i32, ptr %53, align 8, !tbaa !12
  %55 = sext i32 %54 to i64
  store i64 %55, ptr %9, align 8, !tbaa !24
  br label %57

56:                                               ; preds = %37
  store i64 -1, ptr %9, align 8, !tbaa !24
  br label %57

57:                                               ; preds = %56, %51
  br label %79

58:                                               ; preds = %4
  %59 = load ptr, ptr %5, align 8, !tbaa !7
  %60 = getelementptr inbounds nuw %struct.bio_st, ptr %59, i32 0, i32 6
  %61 = load i32, ptr %60, align 4, !tbaa !26
  %62 = sext i32 %61 to i64
  store i64 %62, ptr %9, align 8, !tbaa !24
  br label %79

63:                                               ; preds = %4
  %64 = load i64, ptr %7, align 8, !tbaa !24
  %65 = trunc i64 %64 to i32
  %66 = load ptr, ptr %5, align 8, !tbaa !7
  %67 = getelementptr inbounds nuw %struct.bio_st, ptr %66, i32 0, i32 6
  store i32 %65, ptr %67, align 4, !tbaa !26
  br label %79

68:                                               ; preds = %4, %4
  store i64 0, ptr %9, align 8, !tbaa !24
  br label %79

69:                                               ; preds = %4, %4
  store i64 1, ptr %9, align 8, !tbaa !24
  br label %79

70:                                               ; preds = %4
  %71 = load ptr, ptr %5, align 8, !tbaa !7
  %72 = getelementptr inbounds nuw %struct.bio_st, ptr %71, i32 0, i32 7
  %73 = load i32, ptr %72, align 8, !tbaa !20
  %74 = and i32 %73, 2048
  %75 = icmp ne i32 %74, 0
  %76 = zext i1 %75 to i32
  %77 = sext i32 %76 to i64
  store i64 %77, ptr %9, align 8, !tbaa !24
  br label %79

78:                                               ; preds = %4
  store i64 0, ptr %9, align 8, !tbaa !24
  br label %79

79:                                               ; preds = %78, %70, %69, %68, %63, %58, %57, %24, %19, %13
  %80 = load i64, ptr %9, align 8, !tbaa !24
  call void @llvm.lifetime.end.p0(i64 8, ptr %10) #6
  call void @llvm.lifetime.end.p0(i64 8, ptr %9) #6
  ret i64 %80
}