; Function Attrs: nounwind uwtable
define internal i64 @fd_ctrl(ptr noundef captures(address_is_null) %0, i32 noundef %1, i64 noundef %2, ptr noundef captures(address_is_null) %3) #1 {
  switch i32 %1, label %51 [
    i32 1, label %5
    i32 128, label %6
    i32 133, label %10
    i32 3, label %10
    i32 104, label %14
    i32 105, label %33
    i32 8, label %39
    i32 9, label %43
    i32 2, label %46
    i32 11, label %52
    i32 12, label %52
  ]

5:                                                ; preds = %4
  br label %6

6:                                                ; preds = %5, %4
  %.0 = phi i64 [ %2, %4 ], [ 0, %5 ]
  %7 = getelementptr inbounds nuw i8, ptr %0, i64 56
  %8 = load i32, ptr %7, align 8, !tbaa !7
  %9 = tail call i64 @lseek(i32 noundef %8, i64 noundef %.0, i32 noundef 0) #9
  br label %52

10:                                               ; preds = %4, %4
  %11 = getelementptr inbounds nuw i8, ptr %0, i64 56
  %12 = load i32, ptr %11, align 8, !tbaa !7
  %13 = tail call i64 @lseek(i32 noundef %12, i64 noundef 0, i32 noundef 1) #9
  br label %52

14:                                               ; preds = %4
  %15 = icmp eq ptr %0, null
  br i1 %15, label %fd_free.exit, label %16

16:                                               ; preds = %14
  %17 = getelementptr inbounds nuw i8, ptr %0, i64 44
  %18 = load i32, ptr %17, align 4, !tbaa !22
  %.not.i = icmp eq i32 %18, 0
  br i1 %.not.i, label %fd_free.exit, label %19

19:                                               ; preds = %16
  %20 = getelementptr inbounds nuw i8, ptr %0, i64 40
  %21 = load i32, ptr %20, align 8, !tbaa !23
  %.not7.i = icmp eq i32 %21, 0
  br i1 %.not7.i, label %26, label %22

22:                                               ; preds = %19
  %23 = getelementptr inbounds nuw i8, ptr %0, i64 56
  %24 = load i32, ptr %23, align 8, !tbaa !7
  %25 = tail call i32 @close(i32 noundef %24) #9
  br label %26

26:                                               ; preds = %22, %19
  store i32 0, ptr %20, align 8, !tbaa !23
  %27 = getelementptr inbounds nuw i8, ptr %0, i64 48
  store i32 0, ptr %27, align 8, !tbaa !18
  br label %fd_free.exit

fd_free.exit:                                     ; preds = %14, %16, %26
  %28 = load i32, ptr %3, align 4, !tbaa !3
  %29 = getelementptr inbounds nuw i8, ptr %0, i64 56
  store i32 %28, ptr %29, align 8, !tbaa !7
  %30 = trunc i64 %2 to i32
  %31 = getelementptr inbounds nuw i8, ptr %0, i64 44
  store i32 %30, ptr %31, align 4, !tbaa !22
  %32 = getelementptr inbounds nuw i8, ptr %0, i64 40
  store i32 1, ptr %32, align 8, !tbaa !23
  br label %52

33:                                               ; preds = %4
  %34 = getelementptr inbounds nuw i8, ptr %0, i64 40
  %35 = load i32, ptr %34, align 8, !tbaa !23
  %.not = icmp eq i32 %35, 0
  br i1 %.not, label %52, label %36

36:                                               ; preds = %33
  %.not22 = icmp eq ptr %3, null
  %.phi.trans.insert = getelementptr inbounds nuw i8, ptr %0, i64 56
  %.pre = load i32, ptr %.phi.trans.insert, align 8, !tbaa !7
  br i1 %.not22, label %._crit_edge, label %37

37:                                               ; preds = %36
  store i32 %.pre, ptr %3, align 4, !tbaa !3
  br label %._crit_edge

._crit_edge:                                      ; preds = %36, %37
  %38 = sext i32 %.pre to i64
  br label %52

39:                                               ; preds = %4
  %40 = getelementptr inbounds nuw i8, ptr %0, i64 44
  %41 = load i32, ptr %40, align 4, !tbaa !22
  %42 = sext i32 %41 to i64
  br label %52

43:                                               ; preds = %4
  %44 = trunc i64 %2 to i32
  %45 = getelementptr inbounds nuw i8, ptr %0, i64 44
  store i32 %44, ptr %45, align 4, !tbaa !22
  br label %52

46:                                               ; preds = %4
  %47 = getelementptr inbounds nuw i8, ptr %0, i64 48
  %48 = load i32, ptr %47, align 8, !tbaa !18
  %49 = lshr i32 %48, 11
  %.lobit = and i32 %49, 1
  %50 = zext nneg i32 %.lobit to i64
  br label %52

51:                                               ; preds = %4
  br label %52

52:                                               ; preds = %4, %4, %33, %._crit_edge, %51, %46, %43, %39, %fd_free.exit, %10, %6
  %.020 = phi i64 [ 0, %51 ], [ %50, %46 ], [ 1, %43 ], [ %42, %39 ], [ %38, %._crit_edge ], [ 1, %fd_free.exit ], [ %13, %10 ], [ %9, %6 ], [ -1, %33 ], [ 1, %4 ], [ 1, %4 ]
  ret i64 %.020
}